; Function Attrs: nounwind uwtable
define noalias noundef ptr @Dam_ManAlloc(ptr noundef %0) local_unnamed_addr #0 {
  %2 = alloca %struct.timespec, align 8
  %3 = tail call noalias dereferenceable_or_null(120) ptr @calloc(i64 noundef 1, i64 noundef 120) #29
  call void @llvm.lifetime.start.p0(i64 16, ptr nonnull %2) #27
  %4 = call i32 @clock_gettime(i32 noundef 1, ptr noundef nonnull %2) #27
  %5 = icmp slt i32 %4, 0
  br i1 %5, label %Abc_Clock.exit, label %6

6:                                                ; preds = %1
  %7 = load i64, ptr %2, align 8, !tbaa !73
  %8 = mul nsw i64 %7, 1000000
  %9 = getelementptr inbounds nuw i8, ptr %2, i64 8
  %10 = load i64, ptr %9, align 8, !tbaa !75
  %11 = sdiv i64 %10, 1000
  %12 = add nsw i64 %11, %8
  br label %Abc_Clock.exit

Abc_Clock.exit:                                   ; preds = %1, %6
  %.0.i = phi i64 [ %12, %6 ], [ -1, %1 ]
  call void @llvm.lifetime.end.p0(i64 16, ptr nonnull %2) #27
  %13 = getelementptr inbounds nuw i8, ptr %3, i64 88
  store i64 %.0.i, ptr %13, align 8, !tbaa !76
  %14 = call noalias dereferenceable_or_null(16) ptr @malloc(i64 noundef 16) #26
  %15 = getelementptr inbounds nuw i8, ptr %14, i64 4
  store i32 0, ptr %15, align 4, !tbaa !3
  store i32 1000, ptr %14, align 8, !tbaa !14
  %16 = call noalias dereferenceable_or_null(4000) ptr @malloc(i64 noundef 4000) #26
  %17 = getelementptr inbounds nuw i8, ptr %14, i64 8
  store ptr %16, ptr %17, align 8, !tbaa !10
  %18 = getelementptr inbounds nuw i8, ptr %3, i64 64
  store ptr %14, ptr %18, align 8, !tbaa !80
  store ptr %0, ptr %3, align 8, !tbaa !81
  ret ptr %3
}